; Function Attrs: mustprogress uwtable
define internal fastcc void @_ZN12_GLOBAL__N_113tactic2solverC2ER11ast_managerP6tacticRK10params_refbbbRK6symbol(ptr noundef nonnull align 8 dereferenceable(225) %0, ptr noundef nonnull align 8 dereferenceable(976) %1, ptr noundef %2, ptr noundef nonnull align 8 dereferenceable(8) %3, i1 noundef zeroext %4, i1 noundef zeroext %5, i1 noundef zeroext %6, ptr noundef nonnull readonly align 8 captures(none) dereferenceable(8) %7) unnamed_addr #3 align 2 personality ptr @__gxx_personality_v0 {
  tail call void @_ZN12solver_na2asC2ER11ast_manager(ptr noundef nonnull align 8 dereferenceable(120) %0, ptr noundef nonnull align 8 dereferenceable(976) %1)
  store ptr getelementptr inbounds nuw inrange(-16, 504) (i8, ptr @_ZTVN12_GLOBAL__N_113tactic2solverE, i64 16), ptr %0, align 8, !tbaa !3
  %9 = getelementptr inbounds nuw i8, ptr %0, i64 72
  store ptr getelementptr inbounds nuw inrange(-16, 104) (i8, ptr @_ZTVN12_GLOBAL__N_113tactic2solverE, i64 536), ptr %9, align 8, !tbaa !3
  %10 = getelementptr inbounds nuw i8, ptr %0, i64 120
  %11 = ptrtoint ptr %1 to i64
  store i64 %11, ptr %10, align 8, !tbaa !6
  %12 = getelementptr inbounds nuw i8, ptr %0, i64 128
  store ptr null, ptr %12, align 8, !tbaa !10
  %13 = getelementptr inbounds nuw i8, ptr %0, i64 136
  store i64 %11, ptr %13, align 8, !tbaa !6
  %14 = getelementptr inbounds nuw i8, ptr %0, i64 144
  store ptr null, ptr %14, align 8, !tbaa !10
  %15 = getelementptr inbounds nuw i8, ptr %0, i64 152
  store i32 0, ptr %15, align 8, !tbaa !14
  %16 = getelementptr inbounds nuw i8, ptr %0, i64 160
  %17 = getelementptr inbounds nuw i8, ptr %0, i64 176
  %18 = getelementptr inbounds nuw i8, ptr %0, i64 192
  %19 = getelementptr inbounds nuw i8, ptr %0, i64 208
  %.not.i = icmp eq ptr %2, null
  tail call void @llvm.memset.p0.i64(ptr noundef nonnull align 8 dereferenceable(40) %16, i8 0, i64 40, i1 false)
  tail call void @llvm.memset.p0.i64(ptr noundef nonnull align 8 dereferenceable(17) %19, i8 0, i64 17, i1 false)
  br i1 %.not.i, label %24, label %20

20:                                               ; preds = %8
  %21 = getelementptr inbounds nuw i8, ptr %2, i64 8
  %22 = load i32, ptr %21, align 8, !tbaa !50
  %23 = add i32 %22, 1
  store i32 %23, ptr %21, align 8, !tbaa !50
  br label %24

24:                                               ; preds = %20, %8
  store ptr %2, ptr %17, align 8, !tbaa !52
  %25 = load i64, ptr %7, align 8, !tbaa !53
  store i64 %25, ptr %18, align 8, !tbaa !53
  invoke void @_ZN6solver11updt_paramsERK10params_ref(ptr noundef nonnull align 8 dereferenceable(96) %0, ptr noundef nonnull align 8 dereferenceable(8) %3)
          to label %26 unwind label %33

26:                                               ; preds = %24
  %27 = zext i1 %6 to i8
  %28 = zext i1 %5 to i8
  %29 = zext i1 %4 to i8
  %30 = getelementptr inbounds nuw i8, ptr %0, i64 200
  store i8 %28, ptr %30, align 8, !tbaa !54
  %31 = getelementptr inbounds nuw i8, ptr %0, i64 201
  store i8 %29, ptr %31, align 1, !tbaa !55
  %32 = getelementptr inbounds nuw i8, ptr %0, i64 202
  store i8 %27, ptr %32, align 2, !tbaa !56
  ret void

33:                                               ; preds = %24
  %34 = landingpad { ptr, i32 }
          cleanup
  %35 = getelementptr inbounds nuw i8, ptr %0, i64 184
  %36 = getelementptr inbounds nuw i8, ptr %0, i64 168
  tail call void @_ZN10statisticsD2Ev(ptr noundef nonnull align 8 dereferenceable(16) %19) #28
  tail call void @_ZN3refI15model_converterED2Ev(ptr noundef nonnull align 8 dereferenceable(8) %35) #28
  tail call void @_ZN3refI6tacticED2Ev(ptr noundef nonnull align 8 dereferenceable(8) %17) #28
  tail call void @_ZN3refI23simple_check_sat_resultED2Ev(ptr noundef nonnull align 8 dereferenceable(8) %36) #28
  tail call void @_ZN6vectorIjLb0EjED2Ev(ptr noundef nonnull align 8 dereferenceable(8) %16) #28
  tail call void @_ZN15ref_vector_coreI4expr19ref_manager_wrapperIS0_11ast_managerEED2Ev(ptr noundef nonnull align 8 dereferenceable(16) %13) #28
  tail call void @_ZN15ref_vector_coreI4expr19ref_manager_wrapperIS0_11ast_managerEED2Ev(ptr noundef nonnull align 8 dereferenceable(16) %10) #28
  tail call void @_ZN12solver_na2asD2Ev(ptr noundef nonnull align 8 dereferenceable(120) %0) #28
  resume { ptr, i32 } %34
}